target datalayout = "e-m:e-p270:32:32-p271:32:32-p272:64:64-i64:64-i128:128-f80:128-n8:16:32:64-S128"
target triple = "x86_64-pc-linux-gnu"

%"struct.faiss::IndexFlatCodes" = type { %"struct.faiss::Index.base", i64, %"class.std::vector" }
%"struct.faiss::Index.base" = type <{ ptr, i32, [4 x i8], i64, i8, i8, [2 x i8], i32, float }>
%"class.std::vector" = type { %"struct.std::_Vector_base" }
%"struct.std::_Vector_base" = type { %"struct.std::_Vector_base<unsigned char, std::allocator<unsigned char>>::_Vector_impl" }
%"struct.std::_Vector_base<unsigned char, std::allocator<unsigned char>>::_Vector_impl" = type { %"struct.std::_Vector_base<unsigned char, std::allocator<unsigned char>>::_Vector_impl_data" }
%"struct.std::_Vector_base<unsigned char, std::allocator<unsigned char>>::_Vector_impl_data" = type { ptr, ptr, ptr }
%"struct.faiss::Index" = type <{ ptr, i32, [4 x i8], i64, i8, i8, [2 x i8], i32, float, [4 x i8] }>
%"struct.faiss::IndexNeuralNetCodec" = type { %"struct.faiss::IndexFlatCodes", ptr, i64, i64 }

; Function Attrs: mustprogress uwtable
define void @_ZN5faiss19IndexNeuralNetCodecC2EiiiNS_10MetricTypeE(ptr noundef nonnull align 8 dereferenceable(96) %0, i32 noundef %1, i32 noundef %2, i32 noundef %3, i32 noundef %4) unnamed_addr #2 align 2 {
  %6 = alloca ptr, align 8
  %7 = alloca i32, align 4
  %8 = alloca i32, align 4
  %9 = alloca i32, align 4
  %10 = alloca i32, align 4
  store ptr %0, ptr %6, align 8, !tbaa !11
  store i32 %1, ptr %7, align 4, !tbaa !36
  store i32 %2, ptr %8, align 4, !tbaa !36
  store i32 %3, ptr %9, align 4, !tbaa !36
  store i32 %4, ptr %10, align 4, !tbaa !37
  %11 = load ptr, ptr %6, align 8
  %12 = load i32, ptr %8, align 4, !tbaa !36
  %13 = load i32, ptr %9, align 4, !tbaa !36
  %14 = mul nsw i32 %12, %13
  %15 = add nsw i32 %14, 7
  %16 = sdiv i32 %15, 8
  %17 = sext i32 %16 to i64
  %18 = load i32, ptr %7, align 4, !tbaa !36
  %19 = sext i32 %18 to i64
  %20 = load i32, ptr %10, align 4, !tbaa !37
  call void @_ZN5faiss14IndexFlatCodesC2EmlNS_10MetricTypeE(ptr noundef nonnull align 8 dereferenceable(72) %11, i64 noundef %17, i64 noundef %19, i32 noundef %20)
  store ptr getelementptr inbounds inrange(-16, 192) ({ [26 x ptr] }, ptr @_ZTVN5faiss19IndexNeuralNetCodecE, i32 0, i32 0, i32 2), ptr %11, align 8, !tbaa !9
  %21 = getelementptr inbounds nuw %"struct.faiss::IndexNeuralNetCodec", ptr %11, i32 0, i32 1
  store ptr null, ptr %21, align 8, !tbaa !25
  %22 = getelementptr inbounds nuw %"struct.faiss::IndexNeuralNetCodec", ptr %11, i32 0, i32 2
  %23 = load i32, ptr %8, align 4, !tbaa !36
  %24 = sext i32 %23 to i64
  store i64 %24, ptr %22, align 8, !tbaa !33
  %25 = getelementptr inbounds nuw %"struct.faiss::IndexNeuralNetCodec", ptr %11, i32 0, i32 3
  %26 = load i32, ptr %9, align 4, !tbaa !36
  %27 = sext i32 %26 to i64
  store i64 %27, ptr %25, align 8, !tbaa !34
  %28 = getelementptr inbounds nuw %"struct.faiss::Index", ptr %11, i32 0, i32 5
  store i8 0, ptr %28, align 1, !tbaa !38
  ret void
}