; Function Attrs: mustprogress uwtable
define void @_ZN5faiss19IndexNeuralNetCodecC2EiiiNS_10MetricTypeE(ptr noundef nonnull align 8 dereferenceable(96) %0, i32 noundef %1, i32 noundef %2, i32 noundef %3, i32 noundef %4) unnamed_addr #4 align 2 {
  %6 = mul nsw i32 %3, %2
  %7 = add nsw i32 %6, 7
  %8 = sdiv i32 %7, 8
  %9 = sext i32 %8 to i64
  %10 = sext i32 %1 to i64
  tail call void @_ZN5faiss14IndexFlatCodesC2EmlNS_10MetricTypeE(ptr noundef nonnull align 8 dereferenceable(72) %0, i64 noundef %9, i64 noundef %10, i32 noundef %4)
  store ptr getelementptr inbounds nuw inrange(-16, 192) (i8, ptr @_ZTVN5faiss19IndexNeuralNetCodecE, i64 16), ptr %0, align 8, !tbaa !4
  %11 = getelementptr inbounds nuw i8, ptr %0, i64 72
  store ptr null, ptr %11, align 8, !tbaa !27
  %12 = getelementptr inbounds nuw i8, ptr %0, i64 80
  %13 = sext i32 %2 to i64
  store i64 %13, ptr %12, align 8, !tbaa !34
  %14 = getelementptr inbounds nuw i8, ptr %0, i64 88
  %15 = sext i32 %3 to i64
  store i64 %15, ptr %14, align 8, !tbaa !35
  %16 = getelementptr inbounds nuw i8, ptr %0, i64 25
  store i8 0, ptr %16, align 1, !tbaa !45
  ret void
}